; Function Attrs: mustprogress nofree norecurse nosync nounwind willreturn memory(write, argmem: readwrite, inaccessiblemem: none) uwtable
define internal void @GL_InvalidateCachedState(ptr noundef readonly captures(none) %0) #4 {
  %2 = getelementptr inbounds nuw i8, ptr %0, i64 696
  %3 = load ptr, ptr %2, align 8
  %4 = getelementptr inbounds nuw i8, ptr %3, i64 512
  store i8 1, ptr %4, align 8
  %5 = getelementptr inbounds nuw i8, ptr %3, i64 536
  store ptr null, ptr %5, align 8
  %6 = getelementptr inbounds nuw i8, ptr %3, i64 552
  store i32 0, ptr %6, align 8
  %7 = getelementptr inbounds nuw i8, ptr %3, i64 556
  store i32 0, ptr %7, align 4
  %8 = getelementptr inbounds nuw i8, ptr %3, i64 560
  store i32 2147483647, ptr %8, align 8
  %9 = getelementptr inbounds nuw i8, ptr %3, i64 564
  store i32 -1, ptr %9, align 4
  %10 = getelementptr inbounds nuw i8, ptr %3, i64 592
  store i8 1, ptr %10, align 8
  %11 = getelementptr inbounds nuw i8, ptr %3, i64 594
  store i8 1, ptr %11, align 2
  %12 = getelementptr inbounds nuw i8, ptr %3, i64 613
  store i8 1, ptr %12, align 1
  %13 = getelementptr inbounds nuw i8, ptr %3, i64 614
  store i8 0, ptr %13, align 2
  %14 = getelementptr inbounds nuw i8, ptr %3, i64 615
  store i8 0, ptr %14, align 1
  %15 = getelementptr inbounds nuw i8, ptr %3, i64 616
  store i8 0, ptr %15, align 8
  %16 = getelementptr inbounds nuw i8, ptr %3, i64 617
  store i8 1, ptr %16, align 1
  %17 = getelementptr inbounds nuw i8, ptr %3, i64 636
  store i8 1, ptr %17, align 4
  ret void
}